target datalayout = "e-m:e-p270:32:32-p271:32:32-p272:64:64-i64:64-i128:128-f80:128-n8:16:32:64-S128"
target triple = "x86_64-unknown-linux-gnu"

%"class.node::MemoryRetainer" = type { ptr }
%"class.node::quic::TokenSecret" = type { %"class.node::MemoryRetainer", [16 x i8] }
%"class.node::quic::RetryToken" = type { %"class.node::MemoryRetainer", [78 x i8], %struct.ngtcp2_vec }
%struct.ngtcp2_vec = type { ptr, i64 }
%"class.node::SocketAddress" = type { %"class.node::MemoryRetainer", %struct.sockaddr_storage }
%struct.sockaddr_storage = type { i16, [118 x i8], i64 }
%struct.sockaddr = type { i16, [14 x i8] }

; Function Attrs: mustprogress nounwind uwtable
define linkonce_odr dso_local noundef i64 @_ZN4node13SocketAddress9GetLengthEPK8sockaddr(ptr noundef %addr) #4 comdat align 2 {
entry:
  %addr.addr = alloca ptr, align 8
  store ptr %addr, ptr %addr.addr, align 8
  %0 = load ptr, ptr %addr.addr, align 8
  %sa_family = getelementptr inbounds %struct.sockaddr, ptr %0, i32 0, i32 0
  %1 = load i16, ptr %sa_family, align 2
  %conv = zext i16 %1 to i32
  %cmp = icmp eq i32 %conv, 2
  %cond = select i1 %cmp, i64 16, i64 28
  ret i64 %cond
}

; Function Attrs: mustprogress nounwind uwtable
define linkonce_odr dso_local noundef i64 @_ZN4node13SocketAddress9GetLengthEPK16sockaddr_storage(ptr noundef %addr) #4 comdat align 2 {
entry:
  %addr.addr = alloca ptr, align 8
  store ptr %addr, ptr %addr.addr, align 8
  %0 = load ptr, ptr %addr.addr, align 8
  %call = call noundef i64 @_ZN4node13SocketAddress9GetLengthEPK8sockaddr(ptr noundef %0)
  ret i64 %call
}

; Function Attrs: mustprogress nounwind uwtable
define linkonce_odr dso_local noundef i64 @_ZNK4node13SocketAddress6lengthEv(ptr noundef nonnull align 8 dereferenceable(136) %this) #4 comdat align 2 {
entry:
  %this.addr = alloca ptr, align 8
  store ptr %this, ptr %this.addr, align 8
  %this1 = load ptr, ptr %this.addr, align 8
  %address_ = getelementptr inbounds %"class.node::SocketAddress", ptr %this1, i32 0, i32 1
  %call = call noundef i64 @_ZN4node13SocketAddress9GetLengthEPK16sockaddr_storage(ptr noundef %address_)
  ret i64 %call
}

; Function Attrs: mustprogress nounwind uwtable
define linkonce_odr dso_local noundef ptr @_ZNK4node13SocketAddress4dataEv(ptr noundef nonnull align 8 dereferenceable(136) %this) #4 comdat align 2 {
entry:
  %this.addr = alloca ptr, align 8
  store ptr %this, ptr %this.addr, align 8
  %this1 = load ptr, ptr %this.addr, align 8
  %address_ = getelementptr inbounds %"class.node::SocketAddress", ptr %this1, i32 0, i32 1
  ret ptr %address_
}

; Function Attrs: mustprogress nounwind uwtable
define dso_local noundef ptr @_ZNK4node4quic11TokenSecretcvPKhEv(ptr noundef nonnull align 8 dereferenceable(24) %this) #4 align 2 {
entry:
  %this.addr = alloca ptr, align 8
  store ptr %this, ptr %this.addr, align 8
  %this1 = load ptr, ptr %this.addr, align 8
  %buf_ = getelementptr inbounds %"class.node::quic::TokenSecret", ptr %this1, i32 0, i32 1
  %arraydecay = getelementptr inbounds [16 x i8], ptr %buf_, i64 0, i64 0
  ret ptr %arraydecay
}

; Function Attrs: mustprogress nounwind uwtable
define internal { ptr, i64 } @_ZN4node4quic12_GLOBAL__N_118GenerateRetryTokenEPhjRKNS_13SocketAddressERKNS0_3CIDES8_RKNS0_11TokenSecretE(ptr noundef %buffer, i32 noundef %version, ptr noundef nonnull align 8 dereferenceable(136) %address, ptr noundef nonnull align 8 dereferenceable(48) %retry_cid, ptr noundef nonnull align 8 dereferenceable(48) %odcid, ptr noundef nonnull align 8 dereferenceable(24) %token_secret) #4 {
entry:
  %retval = alloca %struct.ngtcp2_vec, align 8
  %buffer.addr = alloca ptr, align 8
  %version.addr = alloca i32, align 4
  %address.addr = alloca ptr, align 8
  %retry_cid.addr = alloca ptr, align 8
  %odcid.addr = alloca ptr, align 8
  %token_secret.addr = alloca ptr, align 8
  %ret = alloca i64, align 8
  store ptr %buffer, ptr %buffer.addr, align 8
  store i32 %version, ptr %version.addr, align 4
  store ptr %address, ptr %address.addr, align 8
  store ptr %retry_cid, ptr %retry_cid.addr, align 8
  store ptr %odcid, ptr %odcid.addr, align 8
  store ptr %token_secret, ptr %token_secret.addr, align 8
  %0 = load ptr, ptr %buffer.addr, align 8
  %1 = load ptr, ptr %token_secret.addr, align 8
  %call = call noundef ptr @_ZNK4node4quic11TokenSecretcvPKhEv(ptr noundef nonnull align 8 dereferenceable(24) %1)
  %2 = load i32, ptr %version.addr, align 4
  %3 = load ptr, ptr %address.addr, align 8
  %call1 = call noundef ptr @_ZNK4node13SocketAddress4dataEv(ptr noundef nonnull align 8 dereferenceable(136) %3)
  %4 = load ptr, ptr %address.addr, align 8
  %call2 = call noundef i64 @_ZNK4node13SocketAddress6lengthEv(ptr noundef nonnull align 8 dereferenceable(136) %4)
  %conv = trunc i64 %call2 to i32
  %5 = load ptr, ptr %retry_cid.addr, align 8
  %call3 = call noundef ptr @_ZNK4node4quic3CIDcvPK10ngtcp2_cidEv(ptr noundef nonnull align 8 dereferenceable(48) %5)
  %6 = load ptr, ptr %odcid.addr, align 8
  %call4 = call noundef ptr @_ZNK4node4quic3CIDcvPK10ngtcp2_cidEv(ptr noundef nonnull align 8 dereferenceable(48) %6)
  %call5 = call i64 @uv_hrtime()
  %call6 = call i64 @ngtcp2_crypto_generate_retry_token(ptr noundef %0, ptr noundef %call, i64 noundef 16, i32 noundef %2, ptr noundef %call1, i32 noundef %conv, ptr noundef %call3, ptr noundef %call4, i64 noundef %call5)
  store i64 %call6, ptr %ret, align 8
  %7 = load i64, ptr %ret, align 8
  %cmp = icmp eq i64 %7, 0
  br i1 %cmp, label %if.then, label %if.end

if.then:                                          ; preds = %entry
  %base = getelementptr inbounds %struct.ngtcp2_vec, ptr %retval, i32 0, i32 0
  store ptr null, ptr %base, align 8
  %len = getelementptr inbounds %struct.ngtcp2_vec, ptr %retval, i32 0, i32 1
  store i64 0, ptr %len, align 8
  br label %return

if.end:                                           ; preds = %entry
  %base7 = getelementptr inbounds %struct.ngtcp2_vec, ptr %retval, i32 0, i32 0
  %8 = load ptr, ptr %buffer.addr, align 8
  store ptr %8, ptr %base7, align 8
  %len8 = getelementptr inbounds %struct.ngtcp2_vec, ptr %retval, i32 0, i32 1
  %9 = load i64, ptr %ret, align 8
  store i64 %9, ptr %len8, align 8
  br label %return

return:                                           ; preds = %if.end, %if.then
  %10 = load { ptr, i64 }, ptr %retval, align 8
  ret { ptr, i64 } %10
}

; Function Attrs: mustprogress nounwind uwtable
define linkonce_odr dso_local void @_ZN4node14MemoryRetainerC2Ev(ptr noundef nonnull align 8 dereferenceable(8) %this) unnamed_addr #4 comdat align 2 {
entry:
  %this.addr = alloca ptr, align 8
  store ptr %this, ptr %this.addr, align 8
  %this1 = load ptr, ptr %this.addr, align 8
  store ptr getelementptr inbounds ({ [10 x ptr] }, ptr @_ZTVN4node14MemoryRetainerE, i32 0, i32 0, i32 2), ptr %this1, align 8
  ret void
}

; Function Attrs: mustprogress nounwind uwtable
define dso_local void @_ZN4node4quic10RetryTokenC2EjRKNS_13SocketAddressERKNS0_3CIDES7_RKNS0_11TokenSecretE(ptr noundef nonnull align 8 dereferenceable(104) %this, i32 noundef %version, ptr noundef nonnull align 8 dereferenceable(136) %address, ptr noundef nonnull align 8 dereferenceable(48) %retry_cid, ptr noundef nonnull align 8 dereferenceable(48) %odcid, ptr noundef nonnull align 8 dereferenceable(24) %token_secret) unnamed_addr #4 align 2 {
entry:
  %this.addr = alloca ptr, align 8
  %version.addr = alloca i32, align 4
  %address.addr = alloca ptr, align 8
  %retry_cid.addr = alloca ptr, align 8
  %odcid.addr = alloca ptr, align 8
  %token_secret.addr = alloca ptr, align 8
  store ptr %this, ptr %this.addr, align 8
  store i32 %version, ptr %version.addr, align 4
  store ptr %address, ptr %address.addr, align 8
  store ptr %retry_cid, ptr %retry_cid.addr, align 8
  store ptr %odcid, ptr %odcid.addr, align 8
  store ptr %token_secret, ptr %token_secret.addr, align 8
  %this1 = load ptr, ptr %this.addr, align 8
  call void @_ZN4node14MemoryRetainerC2Ev(ptr noundef nonnull align 8 dereferenceable(8) %this1) #3
  store ptr getelementptr inbounds ({ [10 x ptr] }, ptr @_ZTVN4node4quic10RetryTokenE, i32 0, i32 0, i32 2), ptr %this1, align 8
  %buf_ = getelementptr inbounds %"class.node::quic::RetryToken", ptr %this1, i32 0, i32 1
  call void @llvm.memset.p0.i64(ptr align 8 %buf_, i8 0, i64 78, i1 false)
  %ptr_ = getelementptr inbounds %"class.node::quic::RetryToken", ptr %this1, i32 0, i32 2
  %buf_2 = getelementptr inbounds %"class.node::quic::RetryToken", ptr %this1, i32 0, i32 1
  %arraydecay = getelementptr inbounds [78 x i8], ptr %buf_2, i64 0, i64 0
  %0 = load i32, ptr %version.addr, align 4
  %1 = load ptr, ptr %address.addr, align 8
  %2 = load ptr, ptr %retry_cid.addr, align 8
  %3 = load ptr, ptr %odcid.addr, align 8
  %4 = load ptr, ptr %token_secret.addr, align 8
  %call = call { ptr, i64 } @_ZN4node4quic12_GLOBAL__N_118GenerateRetryTokenEPhjRKNS_13SocketAddressERKNS0_3CIDES8_RKNS0_11TokenSecretE(ptr noundef %arraydecay, i32 noundef %0, ptr noundef nonnull align 8 dereferenceable(136) %1, ptr noundef nonnull align 8 dereferenceable(48) %2, ptr noundef nonnull align 8 dereferenceable(48) %3, ptr noundef nonnull align 8 dereferenceable(24) %4)
  %5 = getelementptr inbounds { ptr, i64 }, ptr %ptr_, i32 0, i32 0
  %6 = extractvalue { ptr, i64 } %call, 0
  store ptr %6, ptr %5, align 8
  %7 = getelementptr inbounds { ptr, i64 }, ptr %ptr_, i32 0, i32 1
  %8 = extractvalue { ptr, i64 } %call, 1
  store i64 %8, ptr %7, align 8
  ret void
}