; Function Attrs: mustprogress nounwind uwtable
define dso_local void @_ZN4node4quic10RetryTokenC2EjRKNS_13SocketAddressERKNS0_3CIDES7_RKNS0_11TokenSecretE(ptr noundef nonnull align 8 dereferenceable(104) %this, i32 noundef %version, ptr noundef nonnull align 8 dereferenceable(136) %address, ptr noundef nonnull align 8 dereferenceable(48) %retry_cid, ptr noundef nonnull align 8 dereferenceable(48) %odcid, ptr noundef nonnull align 8 dereferenceable(24) %token_secret) unnamed_addr #3 align 2 {
entry:
  store ptr getelementptr inbounds ({ [10 x ptr] }, ptr @_ZTVN4node4quic10RetryTokenE, i64 0, i32 0, i64 2), ptr %this, align 8
  %buf_ = getelementptr inbounds i8, ptr %this, i64 8
  tail call void @llvm.memset.p0.i64(ptr noundef nonnull align 8 dereferenceable(78) %buf_, i8 0, i64 78, i1 false)
  %ptr_ = getelementptr inbounds i8, ptr %this, i64 88
  %buf_.i.i = getelementptr inbounds i8, ptr %token_secret, i64 8
  %address_.i.i = getelementptr inbounds i8, ptr %address, i64 8
  %0 = load i16, ptr %address_.i.i, align 8
  %cmp.i.i.i.i = icmp eq i16 %0, 2
  %conv.i = select i1 %cmp.i.i.i.i, i32 16, i32 28
  %call3.i = tail call noundef ptr @_ZNK4node4quic3CIDcvPK10ngtcp2_cidEv(ptr noundef nonnull align 8 dereferenceable(48) %retry_cid) #17
  %call4.i = tail call noundef ptr @_ZNK4node4quic3CIDcvPK10ngtcp2_cidEv(ptr noundef nonnull align 8 dereferenceable(48) %odcid) #17
  %call5.i = tail call i64 @uv_hrtime() #17
  %call6.i = tail call i64 @ngtcp2_crypto_generate_retry_token(ptr noundef nonnull %buf_, ptr noundef nonnull %buf_.i.i, i64 noundef 16, i32 noundef %version, ptr noundef nonnull %address_.i.i, i32 noundef %conv.i, ptr noundef %call3.i, ptr noundef %call4.i, i64 noundef %call5.i) #17
  %cmp.i = icmp eq i64 %call6.i, 0
  %.buffer.i = select i1 %cmp.i, ptr null, ptr %buf_
  store ptr %.buffer.i, ptr %ptr_, align 8
  %1 = getelementptr inbounds i8, ptr %this, i64 96
  store i64 %call6.i, ptr %1, align 8
  ret void
}